(dp0
S'Canada'
p1
(lp2
S'32805041'
p3
aS'Ottawa'
p4
aS'1163900'
p5
aS'North America'
p6
aS'1867'
p7
aS'Canadian Dollar'
p8
aS'Christianity'
p9
aS'English'
p10
aS'French'
p11
asS'East Timor'
p12
(lp13
S'1019252'
p14
aS'Dili'
p15
aS'?'
p16
aS'Asia'
p17
aS'1975'
p18
aS'US Dollar'
p19
aS'Catholicism'
p20
aS'Tetu'
p21
aS'Portuguese'
p22
aS'Indonesian'
p23
aS'English'
p24
asS'Sao Tome and Principe'
p25
(lp26
S'187410'
p27
aS'Sao Tome'
p28
aS'53300'
p29
aS'Africa'
p30
aS'1975'
p31
aS'Dobra'
p32
aS'Christianity'
p33
aS'Portuguese'
p34
asS'Guinea-Bissau'
p35
(lp36
S'1388363'
p37
aS'Bissau'
p38
aS'296900'
p39
aS'Africa'
p40
aS'1974'
p41
aS'CFA Franc'
p42
aS'Indigeneous Beliefs;Muslim'
p43
aS'Portuguese'
p44
aS'Criolo'
p45
asS'Saint Helena'
p46
(lp47
S'7415'
p48
aS'Jamestown'
p49
ag16
aS'Africa'
p50
aS'-'
p51
aS'SH Pound'
p52
aS'Anglican'
p53
aS'English'
p54
asS'Serbia and Montenegro'
p55
(lp56
S'10829175'
p57
aS'Belgrade'
p58
aS'1717800'
p59
aS'Europe'
p60
aS'1992'
p61
aS'New Yugoslav Dinar'
p62
aS'Orthodox;Muslim'
p63
aS'Serbian'
p64
aS'Albanian'
p65
asS'Lithuania'
p66
(lp67
S'3596617'
p68
aS'Vilnius'
p69
aS'543500'
p70
aS'Europe'
p71
aS'1990'
p72
aS'Litas'
p73
aS'Catholicism;Orthodox;Lutheran'
p74
aS'Lithuanian'
p75
aS'Polish'
p76
aS'Russian'
p77
asS'Cambodia'
p78
(lp79
S'13363421'
p80
aS'Phnom Penh'
p81
aS'1169800'
p82
aS'Asia'
p83
aS'1953'
p84
aS'Riel'
p85
aS'Buddhism'
p86
aS'Khmer'
p87
aS'English'
p88
aS'French'
p89
asS'Switzerland'
p90
(lp91
S'7489370'
p92
aS'Bern'
p93
aS'122700'
p94
aS'Europe'
p95
aS'1291'
p96
aS'Swiss Franc'
p97
aS'Catholicism;Protestant'
p98
aS'French'
p99
aS'German'
p100
aS'Italian'
p101
asS'Ethiopia'
p102
(lp103
S'67617000'
p104
aS'Addis Ababa'
p105
aS'1495266'
p106
aS'Africa'
p107
aS'-1000'
p108
aS'Birr'
p109
aS'Muslim;Orthodox'
p110
aS'Amharic'
p111
aS'Tigrina'
p112
asS'Aruba'
p113
(lp114
S'71218'
p115
aS'Oranjestad'
p116
ag16
aS'Caribbean'
p117
ag51
aS'Aruban Guilder'
p118
aS'Catholicism'
p119
aS'Dutch'
p120
aS'Papiamento'
p121
aS'English'
p122
aS'Spanish'
p123
asS'Libia'
p124
(lp125
S'5765563'
p126
aS'Tripoli'
p127
aS'2357800'
p128
aS'Africa'
p129
aS'1951'
p130
aS'Libyan Dinar'
p131
aS'Muslim'
p132
aS'Arabic'
p133
asS'Wallis and Futuna'
p134
(lp135
S'15880'
p136
aS'Mata-Utu'
p137
ag16
aS'Oceania'
p138
ag51
aS'CFP Franc'
p139
aS'Catholicism'
p140
aS'French'
p141
aS'Wallisian'
p142
asS'Argentina'
p143
(lp144
S'38970000'
p145
aS'Buenos Aires'
p146
aS'3922829'
p147
aS'Latin America'
p148
aS'1816'
p149
aS'Peso'
p150
aS'Christianity'
p151
aS'Spanish'
p152
asS'Bolivia'
p153
(lp154
S'8857870'
p155
aS'La Paz'
p156
aS'869400'
p157
aS'Latin America'
p158
aS'1825'
p159
aS'Boliviano'
p160
aS'Catholicism'
p161
aS'Spanish'
p162
aS'Aymara'
p163
aS'Quechua'
p164
asS'Cameroon'
p165
(lp166
S'16746179'
p167
aS'Yaounde'
p168
aS'1274300'
p169
aS'Africa'
p170
aS'1960'
p171
aS'CFA Franc'
p172
aS'Christianity'
p173
aS'French'
p174
aS'English'
p175
aS'Bantu'
p176
asS'Burkina Faso'
p177
(lp178
S'13925313'
p179
aS'Ouagadougou'
p180
aS'1441514'
p181
aS'Africa'
p182
aS'1960'
p183
aS'CFA Franc'
p184
aS'Traditional Beliefs'
p185
aS'French'
p186
asS'Swaziland'
p187
(lp188
S'1173900'
p189
aS'Manzini'
p190
aS'75000'
p191
aS'Africa'
p192
aS'1968'
p193
aS'Lilangeni'
p194
aS'Zionism;Catholicism;Other'
p195
aS'English'
p196
aS'SiSwati'
p197
asS'Turkmenistan'
p198
(lp199
S'4952081'
p200
aS'Ashgabat'
p201
aS'727700'
p202
aS'Asia'
p203
aS'1991'
p204
aS'Turkmen Manat'
p205
aS'Muslim'
p206
aS'Turkmen'
p207
aS'Russian'
p208
asS'Ghana'
p209
(lp210
S'20757032'
p211
aS'Accra'
p212
aS'1249100'
p213
aS'Africa'
p214
aS'1957'
p215
aS'Cedi'
p216
aS'Christianity;Muslim'
p217
aS'English'
p218
aS'Akan'
p219
aS'Ewe'
p220
aS'Ga'
p221
asS'Saudi Arabia'
p222
(lp223
S'26417599'
p224
aS'Riyadh'
p225
aS'3724100'
p226
aS'Middle East'
p227
aS'1932'
p228
aS'Saudi Riyal'
p229
aS'Muslim'
p230
aS'Arabic'
p231
asS'Rwanda'
p232
(lp233
S'8491000'
p234
aS'Kigali'
p235
aS'298100'
p236
aS'Africa'
p237
aS'1962'
p238
aS'Rwandan Franc'
p239
aS'Catholicism;Protestant'
p240
aS'Kinyarwanda'
p241
aS'French'
p242
asS'Japan'
p243
(lp244
S'127920000'
p245
aS'Tokyo'
p246
aS'31139900'
p247
aS'Orient'
p248
aS'-660'
p249
aS'Yen'
p250
aS'Shinto;Buddhism'
p251
aS'Japanese'
p252
asS'Cape Verde'
p253
(lp254
S'415294'
p255
aS'Praia'
p256
aS'99400'
p257
aS'Africa'
p258
aS'1975'
p259
aS'CV Escudo'
p260
aS'Catholicism'
p261
aS'Portuguese'
p262
aS'Crioulo'
p263
asS'Northern Mariana Islands'
p264
(lp265
S'78252'
p266
aS'Saipan'
p267
ag16
aS'Oceania'
p268
ag51
aS'US Dollar'
p269
aS'Christianity'
p270
aS'English'
p271
aS'Chamorro'
p272
asS'Slovenia'
p273
(lp274
S'2011070'
p275
aS'Ljubljana'
p276
aS'258000'
p277
aS'Europe'
p278
aS'1991'
p279
aS'Tolar'
p280
aS'Catholicism'
p281
aS'Slovenian'
p282
aS'Serbo-Croatian'
p283
asS'Guatemala'
p284
(lp285
S'14655189'
p286
aS'Guatemala City'
p287
aS'2655900'
p288
aS'Latin America'
p289
aS'1821'
p290
aS'Quetzal'
p291
aS'Catholicism;Mayan Beliefs'
p292
aS'Spanish'
p293
aS'Amerindian'
p294
asS'Bosnia and Herzegovina'
p295
(lp296
S'4025476'
p297
aS'Sarajevo'
p298
aS'581500'
p299
aS'Europe'
p300
aS'1992'
p301
aS'Mark'
p302
aS'Christianity'
p303
aS'Bosnian'
p304
aS'Serbian'
p305
aS'Croatian'
p306
asS'Kuwait'
p307
(lp308
S'2335648'
p309
aS'Kuwait'
p310
aS'1709800'
p311
aS'Middle East'
p312
aS'1961'
p313
aS'Kuwaiti Dinar'
p314
aS'Islam'
p315
aS'Arabic'
p316
asS'Jordan'
p317
(lp318
S'5759732'
p319
aS'Amman'
p320
aS'2677500'
p321
aS'Middle East'
p322
aS'1946'
p323
aS'Jordanian Dinar'
p324
aS'Sunni Muslim'
p325
aS'Arabic'
p326
aS'English'
p327
asS'Dominica'
p328
(lp329
S'69278'
p330
aS'Roseau'
p331
ag16
aS'Caribbean'
p332
aS'1978'
p333
aS'EC Dollar'
p334
aS'Catholicism'
p335
aS'English'
p336
asS'Liberia'
p337
(lp338
S'3482211'
p339
aS'Monrovia'
p340
aS'1348900'
p341
aS'Africa'
p342
aS'1847'
p343
aS'Liberian Dollar'
p344
aS'Indigenous Beliefs;Christianity;Muslim'
p345
aS'English'
p346
aS'20+ other'
p347
asS'Maldives'
p348
(lp349
S'349106'
p350
aS'Male'
p351
aS'81600'
p352
aS'Asia'
p353
aS'1965'
p354
aS'Rufiyaa'
p355
aS'Sunni Muslim'
p356
aS'Sinhala'
p357
aS'Arabic'
p358
aS'English'
p359
asS'Jamaica'
p360
(lp361
S'2731832'
p362
aS'Kingston'
p363
aS'937700'
p364
aS'Caribbean'
p365
aS'1962'
p366
aS'Jamaican Dollar'
p367
aS'Christianity'
p368
aS'English'
p369
asS'Oman'
p370
(lp371
S'3001583'
p372
aS'Muscat'
p373
aS'797000'
p374
aS'Middle East'
p375
aS'1650'
p376
aS'Omani Rial'
p377
aS'Muslim'
p378
aS'Arabic'
p379
aS'5 other'
p380
asS'Tanzania'
p381
(lp382
S'36766356'
p383
aS'Dar es Salaam'
p384
aS'2489800'
p385
aS'Africa'
p386
aS'1961'
p387
aS'Tanzanian Shilling'
p388
aS'Christianity;Muslim'
p389
aS'Swahili'
p390
aS'English'
p391
asS'Martinique'
p392
(lp393
S'429510'
p394
aS'Fort-de-France'
p395
ag16
aS'Caribbean'
p396
ag51
aS'Euro'
p397
aS'Catholicism'
p398
aS'French'
p399
aS'Creole'
p400
asS'Christmas Island'
p401
(lp402
S'396'
p403
aS'The Settlement'
p404
ag16
aS'Oceania'
p405
ag51
aS'Australian Dollar'
p406
aS'Buddhism;Muslim'
p407
aS'English'
p408
aS'Chinese'
p409
aS'Malay'
p410
asS'Gabon'
p411
(lp412
S'1355246'
p413
aS'Libreville'
p414
ag16
aS'Africa'
p415
aS'1960'
p416
aS'CFA Franc'
p417
aS'Christianity'
p418
aS'French'
p419
aS'Fang'
p420
aS'Myene'
p421
asS'Niue'
p422
(lp423
S'2156'
p424
aS'Alofi'
p425
ag16
aS'Oceania'
p426
aS'1974'
p427
aS'New Zealand Dollar'
p428
aS'Protestant;Catholicism'
p429
aS'Niuean'
p430
aS'English'
p431
asS'Monaco'
p432
(lp433
S'32409'
p434
aS'Monaco'
p435
aS'1400'
p436
aS'Europe'
p437
aS'1419'
p438
aS'Euro'
p439
aS'Catholicism'
p440
aS'French'
p441
aS'English'
p442
aS'Italian'
p443
aS'Monegasque'
p444
asS'Samoa'
p445
(lp446
S'117287'
p447
aS'Apia'
p448
aS'35900'
p449
aS'Oceania'
p450
aS'1962'
p451
aS'Tala'
p452
aS'Christianity'
p453
aS'Samoan'
p454
aS'English'
p455
asS'New Zealand'
p456
(lp457
S'4035461'
p458
aS'Wellington'
p459
aS'342500'
p460
aS'Oceania'
p461
aS'1907'
p462
aS'New Zealand Dollar'
p463
aS'Anglican;Catholicism'
p464
aS'English'
p465
aS'Maori'
p466
asS'Spain'
p467
(lp468
S'40341462'
p469
aS'Madrid'
p470
aS'5130000'
p471
aS'Europe'
p472
aS'700'
p473
aS'Euro'
p474
aS'Catholicism'
p475
aS'Castilian Spanish'
p476
aS'Catalan'
p477
aS'Galician'
p478
aS'Basque'
p479
asS'Jersey'
p480
(lp481
S'90502'
p482
aS'Saint Helier'
p483
ag16
aS'Europe'
p484
ag51
aS'British Pound;Jersey Pound'
p485
aS'Anglican'
p486
aS'English'
p487
aS'French'
p488
asS'Andorra'
p489
(lp490
S'64000'
p491
aS'Andorra La Vella'
p492
aS'23000'
p493
aS'Europe'
p494
aS'1278'
p495
aS'Euro'
p496
aS'Christianity'
p497
aS'French'
p498
aS'Catalan'
p499
aS'Spanish'
p500
asS'Yemen'
p501
(lp502
S'20727063'
p503
aS'Sanaa'
p504
aS'1778900'
p505
aS'Middle East'
p506
aS'1990'
p507
aS'Yemeni Rial'
p508
aS'Islam'
p509
aS'Arabic'
p510
asS'Albania'
p511
(lp512
S'3200001'
p513
aS'Tirana'
p514
aS'251000'
p515
aS'Europe'
p516
aS'1912'
p517
aS'Lek'
p518
aS'Islam'
p519
aS'Albanian'
p520
aS'Greek'
p521
asS'England'
p522
(lp523
S'50093800'
p524
aS'London'
p525
aS'11219000'
p526
aS'Europe'
p527
aS'1066'
p528
aS'British Pound'
p529
aS'Anglican;Catholisicm;Other'
p530
aS'English'
p531
asS'Norfolk Island'
p532
(lp533
S'1841'
p534
aS'Kingston'
p535
ag16
aS'Oceania'
p536
ag51
aS'Australian Dollar'
p537
aS'Anglican;Catholicism'
p538
aS'English'
p539
aS'Old Tahitian'
p540
asS'United Arab Emirates'
p541
(lp542
S'2563212'
p543
aS'Abu Dabi'
p544
aS'539800'
p545
aS'Middle East'
p546
aS'1971'
p547
aS'Muslim'
p548
aS'Arabic'
p549
aS'Persian'
p550
aS'English'
p551
aS'Hindi'
p552
aS'Urdu'
p553
asS'Guam'
p554
(lp555
S'166090'
p556
aS'Hagatna'
p557
ag16
aS'Oceania'
p558
ag51
aS'US Dollar'
p559
aS'Catholicism'
p560
aS'English'
p561
aS'Chamorro'
p562
aS'Japanese'
p563
asS'India'
p564
(lp565
S'1080264388'
p566
aS'New Delhi'
p567
aS'17037900'
p568
aS'Asia'
p569
aS'1947'
p570
aS'Rupee'
p571
aS'Hindu;Muslim'
p572
aS'English'
p573
aS'Hindi'
p574
aS'14 other'
p575
asS'Azerbaijan'
p576
(lp577
S'7911974'
p578
aS'Baku'
p579
aS'2118600'
p580
aS'Asia'
p581
aS'1991'
p582
aS'Manat'
p583
aS'Islam'
p584
aS'Azerbaijani'
p585
aS'Russian'
p586
asS'Lesotho'
p587
(lp588
S'1867035'
p589
aS'Maseru'
p590
aS'173700'
p591
aS'Africa'
p592
aS'1966'
p593
aS'Loti'
p594
aS'Christianity;Indigenous Beliefs'
p595
aS'Sosetho'
p596
aS'English'
p597
aS'Zulu'
p598
asS'Saint Vincent and the Grenadines'
p599
(lp600
S'117534'
p601
aS'Kingstown'
p602
aS'17600'
p603
aS'Caribbean'
p604
aS'1979'
p605
aS'EC Dollar'
p606
aS'Anglican;Other'
p607
aS'English'
p608
aS'French Patois'
p609
asS'Cyprus'
p610
(lp611
S'775927'
p612
aS'Nicosia'
p613
aS'197600'
p614
aS'Middle East'
p615
aS'1960'
p616
aS'Cypriot Pound;Turkish Lira'
p617
aS'Orthodox;Muslim'
p618
aS'Greek'
p619
aS'Turkish'
p620
aS'English'
p621
asS'Tajikistan'
p622
(lp623
S'7163506'
p624
aS'Dushanbe'
p625
aS'817100'
p626
aS'Asia'
p627
aS'1991'
p628
aS'Somoni'
p629
aS'Muslim'
p630
aS'Tajik'
p631
aS'Russian'
p632
asS'Turkey'
p633
(lp634
S'69660559'
p635
aS'Ankara'
p636
aS'3582000'
p637
aS'Middle East'
p638
aS'1923'
p639
aS'Turkish Lira'
p640
aS'Muslim'
p641
aS'Turkish'
p642
aS'Kurdish'
p643
aS'Arabic'
p644
asS'Afghanistan'
p645
(lp646
S'2992898'
p647
aS'Kabul'
p648
aS'1424400'
p649
aS'Asia'
p650
aS'1919'
p651
aS'Aphgani'
p652
aS'Islam'
p653
aS'Pashtu'
p654
aS'Persian'
p655
asS'Bangladesh'
p656
(lp657
S'158760000'
p658
aS'Dhaka'
p659
aS'5731000'
p660
aS'Asia'
p661
aS'1971'
p662
aS'Taka'
p663
aS'Islam'
p664
aS'Bengali'
p665
asS'Mauritania'
p666
(lp667
S'3086859'
p668
aS'Nouakchot'
p669
aS'661400'
p670
aS'Africa'
p671
aS'1960'
p672
aS'Ouguiya'
p673
aS'Muslim'
p674
aS'Hassaniya Arabic'
p675
aS'Wolof'
p676
aS'Pulaar'
p677
aS'Soninke'
p678
aS'French'
p679
asS'Solomon Islands'
p680
(lp681
S'538032'
p682
aS'Honiara'
p683
aS'54600'
p684
aS'Oceania'
p685
aS'1978'
p686
aS'SI Dolaar'
p687
aS'Anglican;Catholicism'
p688
aS'Somali'
p689
aS'Arabic'
p690
asS'Turks and Caicos Islands'
p691
(lp692
S'19959'
p693
aS'Grand Turk'
p694
ag16
aS'Caribbean'
p695
ag51
aS'US Dollar'
p696
aS'Christianity'
p697
aS'English'
p698
asS'Saint Lucia'
p699
(lp700
S'166312'
p701
aS'Castries'
p702
aS'60300'
p703
aS'Caribbean'
p704
aS'1979'
p705
aS'EC Dollar'
p706
aS'Catholicism'
p707
aS'English'
p708
aS'French'
p709
asS'San Marino'
p710
(lp711
S'28880'
p712
aS'San Marino'
p713
aS'4300'
p714
aS'Europe'
p715
aS'301'
p716
aS'Euro'
p717
aS'Catholicism'
p718
aS'Italian'
p719
asS'French Polynesia'
p720
(lp721
S'266339'
p722
aS'Papeete'
p723
ag16
aS'Oceania'
p724
ag51
aS'CFP Franc'
p725
aS'Catholicism'
p726
aS'French'
p727
aS'Tahitian'
p728
asS'France'
p729
(lp730
S'66942000'
p731
aS'Paris'
p732
aS'3152423'
p733
aS'Europe'
p734
aS'486'
p735
aS'Euro'
p736
aS'Catholicism'
p737
aS'French'
p738
asS'Bermuda'
p739
(lp740
S'64482'
p741
aS'Hamilton'
p742
ag16
aS'North America'
p743
ag51
aS'Bermudian Dollar'
p744
aS'Christianity'
p745
aS'English'
p746
aS'Portuguese'
p747
asS'Slovakia'
p748
(lp749
S'5431363'
p750
aS'Bratislava'
p751
aS'428800'
p752
aS'Europe'
p753
aS'1993'
p754
aS'Slovak Koruna'
p755
aS'Catholicism'
p756
aS'Slovak'
p757
aS'Hungarian'
p758
asS'Somalia'
p759
(lp760
S'8591629'
p761
aS'Mogadishu'
p762
aS'1208800'
p763
aS'Africa'
p764
aS'1960'
p765
aS'Somali Shilling'
p766
aS'Sunni Muslim'
p767
aS'Somali'
p768
aS'Arabic'
p769
asS'Peru'
p770
(lp771
S'27981000'
p772
aS'Lima'
p773
aS'8126000'
p774
aS'Latin America'
p775
aS'1821'
p776
aS'Nuevo Sol'
p777
aS'Catholicism'
p778
aS'Spanish'
p779
aS'Quechua'
p780
asS'Laos'
p781
(lp782
S'6217141'
p783
aS'Vientiane'
p784
aS'194200'
p785
aS'Asia'
p786
aS'1949'
p787
aS'Kip'
p788
aS'Buddhism;Other'
p789
aS'Lao'
p790
aS'French'
p791
asS'Nauru'
p792
(lp793
S'13048'
p794
aS'Yaren'
p795
aS'4900'
p796
aS'Oceania'
p797
aS'1968'
p798
aS'Australian Dollar'
p799
aS'Christianity'
p800
aS'Nauruan'
p801
aS'English'
p802
asS'Seychelles'
p803
(lp804
S'81188'
p805
aS'Victoria'
p806
aS'23000'
p807
aS'Africa'
p808
aS'1976'
p809
aS'Seychelles Rupee'
p810
aS'Catholicism'
p811
aS'English'
p812
aS'French'
p813
asS'Norway'
p814
(lp815
S'4593041'
p816
aS'Oslo'
p817
aS'791500'
p818
aS'Europe'
p819
aS'1905'
p820
aS'Norwegian Krone'
p821
aS'Lutheran'
p822
aS'Norwegian'
p823
asS'Malawi'
p824
(lp825
S'12158924'
p826
aS'Lilongwe'
p827
aS'499200'
p828
aS'Africa'
p829
aS'1964'
p830
aS'Kwacha'
p831
aS'Protestant;Catholicism;Islam'
p832
aS'English'
p833
asS'Cook Islands'
p834
(lp835
S'21288'
p836
aS'Avarua'
p837
ag16
aS'Oceania'
p838
aS'1965'
p839
aS'NZ Dollar'
p840
aS'Christianity'
p841
aS'English'
p842
aS'Maori'
p843
asS'Benin'
p844
(lp845
S'7460025'
p846
aS'Porto-Novo'
p847
aS'231600'
p848
aS'Africa'
p849
aS'1960'
p850
aS'CFA Franc'
p851
aS'Islam'
p852
aS'French'
p853
aS'Yoruba'
p854
asS'Korea South'
p855
(lp856
S'48422644'
p857
aS'Seoul'
p858
aS'19969100'
p859
aS'Orient'
p860
aS'1945'
p861
aS'SK Won'
p862
aS'Christianity;Buddhism'
p863
aS'Korean'
p864
asS'Cuba'
p865
(lp866
S'11346670'
p867
aS'Havana'
p868
aS'2677938'
p869
aS'Latin America'
p870
aS'1902'
p871
aS'Cuban Peso'
p872
ag51
aS'Spanish'
p873
asS'Saint Kitts and Nevis'
p874
(lp875
S'38936'
p876
aS'Basseterre'
p877
aS'11500'
p878
aS'Caribbean'
p879
aS'1983'
p880
aS'EC Dollar'
p881
aS'Anglican'
p882
aS'English Patois'
p883
asS'Togo'
p884
(lp885
S'5681519'
p886
aS'Lome'
p887
aS'749700'
p888
aS'Africa'
p889
aS'1960'
p890
aS'CFA Franc'
p891
aS'Indigenous Beliefs;Christianity;Muslim'
p892
aS'French'
p893
aS'Other'
p894
asS'Virgin Islands'
p895
(lp896
S'108775'
p897
aS'Charlotte Amalie'
p898
ag16
aS'Caribbean'
p899
ag16
aS'US Dollar'
p900
aS'Baptist;Catholicism'
p901
aS'English'
p902
aS'Spanish'
p903
aS'Creole'
p904
asS'China'
p905
(lp906
S'1300667000'
p907
aS'Beijing'
p908
aS'9800000'
p909
aS'Orient'
p910
aS'-1523'
p911
aS'Yuan'
p912
aS'Buddhism;Taoism'
p913
aS'Mandarin'
p914
aS'Cantonese'
p915
asS'Armenia'
p916
(lp917
S'2982904'
p918
aS'Yerevan'
p919
aS'1462700'
p920
aS'Asia'
p921
aS'1991'
p922
aS'Dram'
p923
aS'Christianity'
p924
aS'Armenian'
p925
aS'Russian'
p926
asS'Dominican Republic'
p927
(lp928
S'8833634'
p929
aS'Santo Domingo'
p930
aS'1600000'
p931
aS'Latin America'
p932
aS'1844'
p933
aS'Dominican Peso'
p934
aS'Catholicism'
p935
aS'Spanish'
p936
asS'Mongolia'
p937
(lp938
S'2791272'
p939
aS'Ulaan Baatar'
p940
aS'804200'
p941
aS'Orient'
p942
aS'1921'
p943
aS'Tugrik'
p944
aS'Buddhism'
p945
aS'Mongolian'
p946
aS'Turkic'
p947
aS'Russian'
p948
asS'Ukraine'
p949
(lp950
S'47425336'
p951
aS'Kiev'
p952
aS'3296100'
p953
aS'Europe'
p954
aS'1991'
p955
aS'Hryvnia'
p956
aS'Orthodox'
p957
aS'Ukranian'
p958
aS'Russian'
p959
aS'Polish'
p960
asS'Bahrain'
p961
(lp962
S'688345'
p963
aS'Al-Manamah'
p964
aS'149900'
p965
aS'Middle East'
p966
aS'1971'
p967
aS'Bahrain Dinar'
p968
aS'Islam'
p969
aS'Arabic'
p970
aS'Farsi'
p971
aS'Urdu'
p972
asS'Tonga'
p973
(lp974
S'112422'
p975
aS"Nuku'alofa"
p976
aS'24500'
p977
aS'Oceania'
p978
aS'1970'
p979
aS"Pa'anga"
p980
aS'Christianity'
p981
aS'Tongan'
p982
aS'English'
p983
asS'Finland'
p984
(lp985
S'520100'
p986
aS'Helsinki'
p987
aS'892240'
p988
aS'Europe'
p989
aS'1917'
p990
aS'Euro'
p991
aS'Lutheran'
p992
aS'Finnish'
p993
aS'Swedish'
p994
asS'Western Sahara'
p995
(lp996
S'273008'
p997
ag16
ag16
aS'Africa'
p998
ag16
aS'Maroccan Dirham'
p999
aS'Muslim'
p1000
aS'Arabic'
p1001
asS'Cayman Islands'
p1002
(lp1003
S'41934'
p1004
aS'George Town'
p1005
ag16
aS'Caribbean'
p1006
aS'1963'
p1007
aS'Cayman Dollar'
p1008
aS'Christianity'
p1009
aS'English'
p1010
asS'Central African Republic'
p1011
(lp1012
S'3683538'
p1013
aS'Bangui'
p1014
aS'81000'
p1015
aS'Africa'
p1016
aS'1960'
p1017
aS'CFA Franc'
p1018
ag51
aS'French'
p1019
aS'Sangho'
p1020
asS'Republic of The Congo'
p1021
(lp1022
S'3800000'
p1023
aS'Brazzaville'
p1024
aS'1169900'
p1025
aS'Africa'
p1026
aS'1960'
p1027
aS'CFA Franc'
p1028
aS'Christianity'
p1029
aS'French'
p1030
asS'Mauritius'
p1031
(lp1032
S'1230602'
p1033
aS'Port Louis'
p1034
aS'577200'
p1035
aS'Indian Ocean'
p1036
aS'1968'
p1037
aS'Mauritian Rupee'
p1038
aS'Hindur;Christianity'
p1039
aS'English'
p1040
aS'Creole'
p1041
aS'French'
p1042
aS'Hindi'
p1043
asS'Liechtenstein'
p1044
(lp1045
S'33717'
p1046
aS'Vaduz'
p1047
aS'5300'
p1048
aS'Europe'
p1049
aS'1719'
p1050
aS'Swiss Franc'
p1051
aS'Catholicism'
p1052
aS'German'
p1053
asS'Vietnam'
p1054
(lp1055
S'83535576'
p1056
aS'Hanoi'
p1057
aS'2543700'
p1058
aS'Orient'
p1059
aS'1945'
p1060
aS'Dong'
p1061
aS'Biddhism;HoaHao;Other'
p1062
aS'Vietnamese'
p1063
asS'Kenya'
p1064
(lp1065
S'33905000'
p1066
aS'Nairobi'
p1067
aS'3064900'
p1068
aS'Africa'
p1069
aS'1963'
p1070
aS'Kenian Shilling'
p1071
aS'Protestant;Catholicism'
p1072
aS'Swahili'
p1073
aS'English'
p1074
asS'Russia'
p1075
(lp1076
S'143420309'
p1077
aS'Moscow'
p1078
aS'11970500'
p1079
aS'Asia'
p1080
aS'1991'
p1081
aS'Ruble'
p1082
aS'Orthodox;Muslim'
p1083
aS'Russian'
p1084
asS'Bulgaria'
p1085
(lp1086
S'7537929'
p1087
aS'Sofia'
p1088
aS'1217024'
p1089
aS'Europe'
p1090
aS'1908'
p1091
aS'Leva'
p1092
aS'Orthodoxy'
p1093
aS'Bulgarian'
p1094
asS'United States'
p1095
(lp1096
S'295734134'
p1097
aS'Washington DC'
p1098
aS'570898'
p1099
aS'North America'
p1100
aS'1776'
p1101
aS'US Dollar'
p1102
aS'Catholicism;Protestant;Other'
p1103
aS'English'
p1104
aS'Spanish'
p1105
asS'Arctica'
p1106
(lp1107
S'0'
p1108
ag51
ag51
aS'Arctic Region'
p1109
ag51
ag51
ag51
ag51
asS'Angola'
p1110
(lp1111
S'14284000'
p1112
aS'Luanda'
p1113
aS'4534000'
p1114
aS'Africa'
p1115
aS'1975'
p1116
aS'New Kwanza'
p1117
aS'Traditional Beliefs'
p1118
aS'Portuguese'
p1119
aS'Bantu'
p1120
asS'Cocos Island'
p1121
(lp1122
S'629'
p1123
aS'West Island'
p1124
ag16
aS'Oceania'
p1125
ag51
aS'Australian Dollar'
p1126
aS'Islam'
p1127
aS'Malay'
p1128
aS'English'
p1129
asS'Chad'
p1130
(lp1131
S'9253493'
p1132
aS"H'Djamena"
p1133
aS'500000'
p1134
aS'Africa'
p1135
aS'1960'
p1136
aS'CFA Franc'
p1137
aS'Islam'
p1138
aS'Arabic'
p1139
aS'French'
p1140
asS'South Africa'
p1141
(lp1142
S'44344136'
p1143
aS'Pretoria'
p1144
aS'1541300'
p1145
aS'Africa'
p1146
aS'1910'
p1147
aS'Rand'
p1148
aS'Christianity;Indigenous Beliefs'
p1149
aS'Afrikaans'
p1150
aS'English'
p1151
aS'9 other'
p1152
asS'Tokelau'
p1153
(lp1154
S'1405'
p1155
ag51
ag51
aS'Oceania'
p1156
ag51
aS'New Zealand Dollar'
p1157
aS'Christianity'
p1158
aS'Tokelauan'
p1159
aS'English'
p1160
asS'Fiji'
p1161
(lp1162
S'880874'
p1163
aS'Suva'
p1164
ag16
aS'Oceania'
p1165
aS'1970'
p1166
aS'Fijian Dollar'
p1167
aS'Christianity;Hindu;Muslim'
p1168
aS'English'
p1169
aS'Fijan'
p1170
aS'Hinustani'
p1171
asS'Palestinian State'
p1172
(lp1173
S'3763900'
p1174
ag16
ag16
aS'Middle East'
p1175
ag16
aS'Shekel;Dinar'
p1176
aS'Islam;Jewish'
p1177
aS'Arabic'
p1178
aS'Hebrew'
p1179
aS'English'
p1180
asS'Sweden'
p1181
(lp1182
S'9001774'
p1183
aS'Stockholm'
p1184
aS'1622300'
p1185
aS'Europe'
p1186
aS'1523'
p1187
aS'Swedish Krona'
p1188
aS'Lutheran'
p1189
aS'Swedish'
p1190
asS'Qatar'
p1191
(lp1192
S'840290'
p1193
aS'Doha'
p1194
ag16
aS'Middle East'
p1195
aS'1971'
p1196
aS'Qatari Rial'
p1197
aS'Muslim'
p1198
aS'Arabic'
p1199
asS'Malaysia'
p1200
(lp1201
S'23953136'
p1202
aS'Kuala Lumpur'
p1203
aS'3688200'
p1204
aS'Asia'
p1205
aS'1957'
p1206
aS'Ringgit'
p1207
aS'Muslim;Buddhism'
p1208
aS'Malay'
p1209
aS'English'
p1210
asS'Austria'
p1211
(lp1212
S'8115000'
p1213
aS'Vienna'
p1214
aS'1987577'
p1215
aS'Europe'
p1216
aS'1918'
p1217
aS'Euro'
p1218
aS'Christianity'
p1219
aS'German'
p1220
asS'Mozambique'
p1221
(lp1222
S'19406703'
p1223
aS'Maputo'
p1224
aS'1691000'
p1225
aS'Africa'
p1226
aS'1975'
p1227
aS'Metical'
p1228
aS'Indigenous Beliefs;Christianity;Muslim'
p1229
aS'Portuguese'
p1230
asS'Uganda'
p1231
(lp1232
S'27269482'
p1233
aS'Kampala'
p1234
aS'1461600'
p1235
aS'Africa'
p1236
aS'1962'
p1237
aS'Ugandan Shilling'
p1238
aS'Catholicism'
p1239
aS'English'
p1240
aS'Swahili'
p1241
asS'Hungary'
p1242
(lp1243
S'10032600'
p1244
aS'Budapest'
p1245
aS'2596132'
p1246
aS'Europe'
p1247
aS'1001'
p1248
aS'Forint'
p1249
aS'Catholicism'
p1250
aS'Hungarian'
p1251
asS'Niger'
p1252
(lp1253
S'11665937'
p1254
aS'Niamey'
p1255
aS'748600'
p1256
aS'Africa'
p1257
aS'1960'
p1258
aS'CFA Franc'
p1259
aS'Muslim'
p1260
aS'French'
p1261
aS'Hausa'
p1262
aS'Djerma'
p1263
asS'Isle of Man'
p1264
(lp1265
S'76315'
p1266
aS'Douglas'
p1267
aS'25347'
p1268
aS'Europe'
p1269
ag51
aS'IoM Pound'
p1270
aS'Anglican'
p1271
aS'English'
p1272
aS'Manx Gaelic'
p1273
asS'Wales'
p1274
(lp1275
S'2905500'
p1276
aS'Cardiff'
p1277
aS'676400'
p1278
aS'Europe'
p1279
ag51
aS'British Pound'
p1280
aS'Methodist;Other'
p1281
aS'English'
p1282
aS'Welsh'
p1283
asS'Brazil'
p1284
(lp1285
S'186112794'
p1286
aS'Brasilia'
p1287
aS'2567709'
p1288
aS'Latin America'
p1289
aS'1822'
p1290
aS'Real'
p1291
aS'Christianity'
p1292
aS'Portuguese'
p1293
asS'Falkland Islands'
p1294
(lp1295
S'2967'
p1296
aS'Stanley'
p1297
ag16
aS'South America'
p1298
ag51
aS'Falkland Pound'
p1299
aS'Catholicism'
p1300
aS'English'
p1301
asS'Faroe Islands'
p1302
(lp1303
S'46662'
p1304
aS'Torshavn'
p1305
ag16
aS'Europe'
p1306
ag51
aS'Danish Krone'
p1307
aS'Lutheran'
p1308
aS'Faroese'
p1309
aS'Danish'
p1310
asS'Guinea'
p1311
(lp1312
S'9246463'
p1313
aS'Conakry'
p1314
aS'1767200'
p1315
aS'Africa'
p1316
aS'1958'
p1317
aS'Guinean Franc'
p1318
aS'Muslim'
p1319
aS'French'
p1320
asS'Panama'
p1321
(lp1322
S'3039150'
p1323
aS'Panama City'
p1324
aS'1053500'
p1325
aS'Latin America'
p1326
aS'1903'
p1327
aS'Balboa'
p1328
aS'Catholicism'
p1329
aS'Spanish'
p1330
asS'Mali'
p1331
(lp1332
S'12291529'
p1333
aS'Bamako'
p1334
aS'1323200'
p1335
aS'Africa'
p1336
aS'1960'
p1337
aS'CFA Franc'
p1338
aS'Muslim'
p1339
aS'French'
p1340
aS'Bambara'
p1341
asS'Scotland'
p1342
(lp1343
S'5128000'
p1344
aS'Edinburgh'
p1345
aS'663700'
p1346
aS'Europe'
p1347
ag51
aS'British Pound'
p1348
aS'Catholicism'
p1349
aS'English'
p1350
aS'Gaelic'
p1351
asS'Costa Rica'
p1352
(lp1353
S'4016173'
p1354
aS'San Jose'
p1355
aS'1527300'
p1356
aS'Latin America'
p1357
aS'1821'
p1358
aS'Colon'
p1359
aS'Christianity'
p1360
aS'Spanish'
p1361
aS'English'
p1362
asS'Luxembourg'
p1363
(lp1364
S'468571'
p1365
aS'Luxembourg'
p1366
aS'78800'
p1367
aS'Europe'
p1368
aS'1839'
p1369
aS'Euro'
p1370
aS'Catholicism'
p1371
aS'Luxembourgish'
p1372
aS'German'
p1373
aS'French'
p1374
asS'Bahamas'
p1375
(lp1376
S'303611'
p1377
aS'Nassau'
p1378
aS'222200'
p1379
aS'North America'
p1380
aS'1973'
p1381
aS'Bahamian Dollar'
p1382
aS'Christianity'
p1383
aS'English'
p1384
asS'Gibraltar'
p1385
(lp1386
S'27833'
p1387
aS'Gibraltar'
p1388
ag16
aS'Europe'
p1389
ag51
aS'Gibraltar Pound'
p1390
aS'Catholicism'
p1391
aS'English'
p1392
aS'Yanito'
p1393
asS'Ireland'
p1394
(lp1395
S'4015676'
p1396
aS'Dublin'
p1397
aS'1018500'
p1398
aS'Europe'
p1399
aS'1921'
p1400
aS'Euro'
p1401
aS'Catholicism'
p1402
aS'English'
p1403
aS'Gaelic'
p1404
asS'Pakistan'
p1405
(lp1406
S'162419946'
p1407
aS'Islamabad'
p1408
aS'601600'
p1409
aS'Asia'
p1410
aS'1947'
p1411
aS'Pakistani Rupee'
p1412
aS'Muslim'
p1413
aS'Punjabi'
p1414
aS'Sindhi'
p1415
aS'English'
p1416
aS'14 other'
p1417
asS'Palau'
p1418
(lp1419
S'20303'
p1420
aS'Koror'
p1421
aS'11100'
p1422
aS'Oceania'
p1423
aS'1994'
p1424
aS'US Dollar'
p1425
aS'Christianity;Modekngei'
p1426
aS'English'
p1427
aS'Palauan'
p1428
aS'4 other'
p1429
asS'Nigeria'
p1430
(lp1431
S'128771988'
p1432
aS'Abuja'
p1433
aS'590400'
p1434
aS'Africa'
p1435
aS'1960'
p1436
aS'Naira'
p1437
aS'Muslim;Christianity'
p1438
aS'English'
p1439
aS'Hausa'
p1440
aS'4 other'
p1441
asS'Ecuador'
p1442
(lp1443
S'13212742'
p1444
aS'Quito'
p1445
aS'1994318'
p1446
aS'Latin America'
p1447
aS'1822'
p1448
aS'US Dollar'
p1449
aS'Catholicism'
p1450
aS'Spanish'
p1451
aS'Quechua'
p1452
asS'Czech Republic'
p1453
(lp1454
S'10241138'
p1455
aS'Prague'
p1456
aS'1378700'
p1457
aS'Europe'
p1458
aS'1993'
p1459
aS'Krona'
p1460
aS'Catholicism'
p1461
aS'Chech'
p1462
asS'Brunei'
p1463
(lp1464
S'343653'
p1465
aS'Bandar Seri Begawan'
p1466
aS'78000'
p1467
aS'Asia'
p1468
aS'1984'
p1469
aS'Brunei Dollar'
p1470
aS'Islam'
p1471
aS'Malay'
p1472
aS'English'
p1473
aS'Chinese'
p1474
asS'Australia'
p1475
(lp1476
S'20200000'
p1477
aS'Canberra'
p1478
aS'310000'
p1479
aS'Oceania'
p1480
aS'1901'
p1481
aS'Australian Dollar'
p1482
aS'Anglican'
p1483
aS'English'
p1484
asS'Iran'
p1485
(lp1486
S'68017860'
p1487
aS'Tehran'
p1488
aS'11224800'
p1489
aS'Middle East'
p1490
aS'1979'
p1491
aS'Rial'
p1492
aS'Siah Muslim'
p1493
aS'Persian'
p1494
asS'Algeria'
p1495
(lp1496
S'32531853'
p1497
aS'Algiers'
p1498
aS'1507241'
p1499
aS'Africa'
p1500
aS'1962'
p1501
aS'Dinar'
p1502
aS'Sunni Muslim'
p1503
aS'Arabic'
p1504
aS'Berber'
p1505
aS'French'
p1506
asS'Svalbard'
p1507
(lp1508
S'2756'
p1509
aS'Longyearbyen'
p1510
ag16
aS'Arctic Region'
p1511
ag51
aS'Norwegian Krone'
p1512
ag16
aS'Norwegian'
p1513
aS'Russian'
p1514
asS'El Salvador'
p1515
(lp1516
S'6587541'
p1517
aS'San Salvador'
p1518
aS'2100000'
p1519
aS'Latin America'
p1520
aS'1821'
p1521
aS'US Dollar'
p1522
aS'Catholicism'
p1523
aS'Spanish'
p1524
aS'Nahua'
p1525
asS'Tuvalu'
p1526
(lp1527
S'11468'
p1528
aS'Funafuti'
p1529
aS'5300'
p1530
aS'Oceania'
p1531
aS'1978'
p1532
aS'Australian Dollar'
p1533
aS'Christianity'
p1534
aS'Tuvaluan'
p1535
aS'English'
p1536
aS'Other'
p1537
asS'Pitcairn Islands'
p1538
(lp1539
S'46'
p1540
aS'Adamstown'
p1541
ag16
aS'Oceania'
p1542
ag51
aS'New Zealand Dollar'
p1543
aS'Adventist'
p1544
aS'English'
p1545
aS'Pitcairnese'
p1546
asS'Saint Pierre and Miquelon'
p1547
(lp1548
S'6995'
p1549
aS'Saint-Pierre'
p1550
ag16
aS'North America'
p1551
ag51
aS'Euro'
p1552
aS'Catholicism'
p1553
aS'French'
p1554
asS'Marshall Islands'
p1555
(lp1556
S'59071'
p1557
aS'Majuro'
p1558
aS'20500'
p1559
aS'Oceania'
p1560
aS'1986'
p1561
aS'US Dollar'
p1562
aS'Protestant'
p1563
aS'Marshallese'
p1564
aS'English'
p1565
asS'Chile'
p1566
(lp1567
S'16136137'
p1568
aS'Santiago'
p1569
aS'8236300'
p1570
aS'Latin America'
p1571
aS'1810'
p1572
aS'Peso'
p1573
aS'Christianity'
p1574
aS'Spanish'
p1575
asS'Puerto Rico'
p1576
(lp1577
S'3897960'
p1578
aS'San Juan'
p1579
ag16
aS'Caribbean'
p1580
ag51
aS'US Dollar'
p1581
aS'Catholicism'
p1582
aS'Spanish'
p1583
asS'Belgium'
p1584
(lp1585
S'10445852'
p1586
aS'Brussels'
p1587
aS'737966'
p1588
aS'Europe'
p1589
aS'1830'
p1590
aS'Euro'
p1591
aS'Catholicism'
p1592
aS'Dutch'
p1593
aS'French'
p1594
aS'German'
p1595
asS'Kiribati'
p1596
(lp1597
S'103092'
p1598
aS'Tarawa'
p1599
aS'26600'
p1600
aS'Oceania'
p1601
aS'1979'
p1602
aS'Australian Dollar'
p1603
aS'Catholicism;Protestant'
p1604
aS'I-Kiribati'
p1605
aS'English'
p1606
asS'Haiti'
p1607
(lp1608
S'7656166'
p1609
aS'Port-au-Prince'
p1610
aS'1764000'
p1611
aS'Latin America'
p1612
aS'1804'
p1613
aS'Gourde'
p1614
aS'Catholicism'
p1615
aS'Creole'
p1616
aS'French'
p1617
asS'Belize'
p1618
(lp1619
S'266440'
p1620
aS'Belmopan'
p1621
aS'8700'
p1622
aS'Latin America'
p1623
aS'1981'
p1624
aS'Belizean Dollar'
p1625
aS'Christianity'
p1626
aS'English'
p1627
aS'Spanish'
p1628
aS'Creole'
p1629
asS'Hong Kong'
p1630
(lp1631
S'6943600'
p1632
ag51
ag51
aS'Orient'
p1633
aS'1997'
p1634
aS'Hong Kong Dollar'
p1635
ag51
aS'Cantonese'
p1636
aS'Mandarin'
p1637
aS'English'
p1638
asS'Sierra Leone'
p1639
(lp1640
S'6017643'
p1641
aS'Freetown'
p1642
aS'1051000'
p1643
aS'Africa'
p1644
aS'1961'
p1645
aS'Leone'
p1646
aS'Muslim;Indigenous Beliefs'
p1647
aS'English'
p1648
aS'Mende'
p1649
aS'Temne'
p1650
aS'Krio'
p1651
asS'Johnston Atoll'
p1652
(lp1653
S'396'
p1654
ag51
ag51
aS'Oceania'
p1655
ag51
aS'US Dollar'
p1656
ag51
aS'English'
p1657
asS'Georgia'
p1658
(lp1659
S'4693892'
p1660
aS'Tbilisi'
p1661
aS'1440000'
p1662
aS'Asia'
p1663
aS'1991'
p1664
aS'Lari'
p1665
aS'Orthodox'
p1666
aS'Georgian'
p1667
aS'Russian'
p1668
asS'Gambia'
p1669
(lp1670
S'1546848'
p1671
aS'Banjul'
p1672
ag16
aS'Africa'
p1673
ag51
aS'Dalasi'
p1674
aS'Muslim'
p1675
aS'English'
p1676
aS'Mandinka'
p1677
aS'Other'
p1678
asS'Philippines'
p1679
(lp1680
S'87854000'
p1681
aS'Manila'
p1682
aS'13790194'
p1683
aS'Asia'
p1684
aS'1898'
p1685
aS'Philippino Peso'
p1686
aS'Christianity'
p1687
aS'Filipino'
p1688
aS'English'
p1689
asS'Romania'
p1690
(lp1691
S'22329977'
p1692
aS'Bucharest'
p1693
aS'2206894'
p1694
aS'Europe'
p1695
aS'1877'
p1696
aS'Leu'
p1697
aS'Orthodox'
p1698
aS'Romanian'
p1699
asS'Moldova'
p1700
(lp1701
S'4455421'
p1702
aS'Chisinau'
p1703
aS'772500'
p1704
aS'Europe'
p1705
aS'1991'
p1706
aS'Leu'
p1707
aS'Orthodox'
p1708
aS'Moldovan'
p1709
aS'Russian'
p1710
aS'Gagauz'
p1711
asS'Morocco'
p1712
(lp1713
S'32725847'
p1714
aS'Rabat'
p1715
aS'1636600'
p1716
aS'Africa'
p1717
aS'1956'
p1718
aS'Dirham'
p1719
aS'Islam'
p1720
aS'Airabic'
p1721
aS'Berber'
p1722
aS'French'
p1723
asS'Croatia'
p1724
(lp1725
S'4495904'
p1726
aS'Zagreb'
p1727
aS'685500'
p1728
aS'Europe'
p1729
aS'1991'
p1730
aS'Kuna'
p1731
aS'Catholicism'
p1732
aS'Croatian'
p1733
asS'Micronesia'
p1734
(lp1735
S'108105'
p1736
aS'Palikir'
p1737
aS'11600'
p1738
aS'Oceania'
p1739
aS'1986'
p1740
aS'US Dollar'
p1741
aS'Catholicism'
p1742
aS'English'
p1743
aS'Chukese'
p1744
aS'7 other'
p1745
asS'Guernsey'
p1746
(lp1747
S'65031'
p1748
aS'Saint Peter Port'
p1749
ag16
aS'Europe'
p1750
ag51
aS'British Pound;Guernsey Pound'
p1751
aS'Catholicism'
p1752
aS'English'
p1753
aS'French'
p1754
asS'Thailand'
p1755
(lp1756
S'65444371'
p1757
aS'Bangkok'
p1758
aS'8838500'
p1759
aS'Asia'
p1760
aS'1238'
p1761
aS'Baht'
p1762
aS'Buddhism'
p1763
aS'Thai'
p1764
aS'English'
p1765
asS'Namibia'
p1766
(lp1767
S'2030692'
p1768
aS'Windhoek'
p1769
aS'221000'
p1770
aS'Africa'
p1771
aS'1990'
p1772
aS'Namibian Dollar;Rand'
p1773
aS'Christianity'
p1774
aS'English'
p1775
aS'Africaans'
p1776
asS'Grenada'
p1777
(lp1778
S'89357'
p1779
aS"Saint George's"
p1780
aS'4300'
p1781
aS'Caribbean'
p1782
aS'1974'
p1783
aS'EC Dollar'
p1784
aS'Catholicism'
p1785
aS'English'
p1786
aS'French'
p1787
asS"Cote d'Ivorie"
p1788
(lp1789
S'12464000'
p1790
aS'Abidjan'
p1791
aS'1850000'
p1792
aS'Africa'
p1793
aS'1960'
p1794
aS'1960'
p1795
ag51
aS'French'
p1796
asS'Iraq'
p1797
(lp1798
S'26074906'
p1799
aS'Baghdad'
p1800
aS'6777300'
p1801
aS'Middle East'
p1802
aS'1932'
p1803
aS'New Iraqi Dinnar'
p1804
aS'Shia Muslim;Sunni Muslim'
p1805
aS'Arabic'
p1806
aS'Kurdish'
p1807
asS'Portugal'
p1808
(lp1809
S'10566212'
p1810
aS'Lisbon'
p1811
aS'2618100'
p1812
aS'Europe'
p1813
aS'1143'
p1814
aS'Euro'
p1815
aS'Catholicism'
p1816
aS'Portuguese'
p1817
aS'Mirandese'
p1818
asS'Estonia'
p1819
(lp1820
S'1341664'
p1821
aS'Tallinn'
p1822
ag16
aS'Europe'
p1823
aS'1991'
p1824
aS'Kroon'
p1825
aS'Lutheran;Orthodox'
p1826
aS'Estonian'
p1827
aS'Russian'
p1828
aS'Finish'
p1829
asS'Uruguay'
p1830
(lp1831
S'3415920'
p1832
aS'Montevideo'
p1833
aS'1745100'
p1834
aS'Latin America'
p1835
aS'1825'
p1836
aS'Uruguayan Peso'
p1837
aS'Catholicism'
p1838
aS'Spanish'
p1839
aS'Portunol'
p1840
asS'Mexico'
p1841
(lp1842
S'106202903'
p1843
aS'Mexico City'
p1844
aS'21233900'
p1845
aS'Latin America'
p1846
aS'1810'
p1847
aS'Peso'
p1848
aS'Catholicism'
p1849
aS'Spanish'
p1850
aS'Mayan'
p1851
aS'Nahuati'
p1852
asS'Lebanon'
p1853
(lp1854
S'3826018'
p1855
aS'Beirut'
p1856
aS'1916100'
p1857
aS'Middle East'
p1858
aS'1943'
p1859
aS'Lebanese Pound'
p1860
aS'Muslim;Christianity'
p1861
aS'Arabic'
p1862
aS'French'
p1863
asS'Uzbekistan'
p1864
(lp1865
S'26851195'
p1866
aS'Tashkent'
p1867
aS'3457500'
p1868
aS'Asia'
p1869
aS'1991'
p1870
aS'Sum'
p1871
aS'Muslim;Orthodox'
p1872
aS'Uzbek'
p1873
aS'Russian'
p1874
aS'Tajik'
p1875
asS'Tunisia'
p1876
(lp1877
S'10074951'
p1878
aS'Tunis'
p1879
aS'1660300'
p1880
aS'Africa'
p1881
aS'1956'
p1882
aS'Tunisian Dinar'
p1883
aS'Muslim'
p1884
aS'Arabic'
p1885
asS'Djibouti'
p1886
(lp1887
S'476603'
p1888
aS'Djibouti'
p1889
aS'383000'
p1890
aS'Africa'
p1891
aS'1977'
p1892
aS'Djibouti Franc'
p1893
aS'Muslim'
p1894
aS'French'
p1895
aS'Arabic'
p1896
asS'Greenland'
p1897
(lp1898
S'56384'
p1899
aS'Nuuk'
p1900
aS'15361'
p1901
aS'Arctic Region'
p1902
ag51
aS'Danish Krone'
p1903
aS'Lutheran'
p1904
aS'Greenlandic'
p1905
aS'Danish'
p1906
asS'Antigua and Barbuda'
p1907
(lp1908
S'68722'
p1909
aS'St. Johns'
p1910
aS'23500'
p1911
aS'Caribbean'
p1912
ag51
aS'East Caribbean Dollar'
p1913
aS'Christianity'
p1914
aS'English'
p1915
asS'Bielarus'
p1916
(lp1917
S'9800000'
p1918
aS'Minsk'
p1919
aS'1769500'
p1920
aS'Europe'
p1921
aS'1991'
p1922
aS'Bielarussion Ruble'
p1923
aS'Orthodox'
p1924
aS'Bielarussian'
p1925
aS'Russian'
p1926
asS'Colombia'
p1927
(lp1928
S'44531434'
p1929
aS'Bogota'
p1930
aS'6819696'
p1931
aS'Latin America'
p1932
aS'1810'
p1933
aS'Peso'
p1934
aS'Christianity'
p1935
aS'Spanish'
p1936
asS'Reunion'
p1937
(lp1938
S'766153'
p1939
aS'Saint-Denis'
p1940
ag16
aS'Pacific Ocean'
p1941
ag51
aS'Euro'
p1942
aS'Catholicism;Hindu;Muslim;Buddhism'
p1943
aS'French'
p1944
aS'Creole'
p1945
asS'Burundi'
p1946
(lp1947
S'6370714'
p1948
aS'Bujumbara'
p1949
aS'336628'
p1950
aS'Africa'
p1951
aS'1962'
p1952
aS'Burundi Franc'
p1953
aS'Christianity'
p1954
aS'Kirundi'
p1955
aS'French'
p1956
asS'Taiwan'
p1957
(lp1958
S'22894384'
p1959
aS'Taipei'
p1960
aS'7871900'
p1961
aS'Orient'
p1962
aS'1945'
p1963
aS'Taiwan Dollar'
p1964
aS'Buddhism;Confucian;Taoism'
p1965
aS'Mandarin'
p1966
asS'Democratic Republic of Congo'
p1967
(lp1968
S'60085004'
p1969
aS'Kinshasa'
p1970
aS'6541300'
p1971
aS'Africa'
p1972
aS'1960'
p1973
aS"C'ese Franc"
p1974
aS'Catholicism;Islam'
p1975
aS'French'
p1976
aS'Lingala'
p1977
asS'Barbados'
p1978
(lp1979
S'276607'
p1980
aS'Bridgetown'
p1981
aS'98900'
p1982
aS'Caribbean'
p1983
aS'1966'
p1984
aS'Barbadian Dollar'
p1985
aS'Christianity'
p1986
aS'English'
p1987
asS'Madagascar'
p1988
(lp1989
S'18040341'
p1990
aS'Antananarivo'
p1991
aS'1390800'
p1992
aS'Africa'
p1993
aS'1960'
p1994
aS'Ariary'
p1995
aS'Indigenous Beliefs;Christianity'
p1996
aS'Malagasy'
p1997
aS'French'
p1998
asS'Italy'
p1999
(lp2000
S'58103033'
p2001
aS'Rome'
p2002
aS'3550900'
p2003
aS'Europe'
p2004
aS'1861'
p2005
aS'Euro'
p2006
aS'Catholicism'
p2007
aS'Italian'
p2008
aS'German'
p2009
asS'Bhutan'
p2010
(lp2011
S'2232291'
p2012
aS'Thimphu'
p2013
aS'60200'
p2014
aS'Asia'
p2015
aS'1949'
p2016
aS'Bhutan Ngultrum'
p2017
aS'Buddhism'
p2018
aS'Dzongkha'
p2019
asS'Sudan'
p2020
(lp2021
S'40187486'
p2022
aS'Khartoum'
p2023
aS'5717300'
p2024
aS'Africa'
p2025
aS'1956'
p2026
aS'Sudanese Dinar'
p2027
aS'Sunni Muslim;Indigenous Beliefs'
p2028
aS'Arabic'
p2029
aS'8 other'
p2030
asS'Nepal'
p2031
(lp2032
S'27676547'
p2033
aS'Kathmandu'
p2034
aS'1203100'
p2035
aS'Asia'
p2036
aS'1768'
p2037
aS'Nepalese Rupee'
p2038
aS'Hinduism'
p2039
aS'Nepali'
p2040
asS'Malta'
p2041
(lp2042
S'398534'
p2043
aS'Valletta'
p2044
aS'194200'
p2045
aS'Europe'
p2046
aS'1964'
p2047
aS'Maltese Lira'
p2048
aS'Catholicism'
p2049
aS'Maltese'
p2050
aS'English'
p2051
asS'Netherlands'
p2052
(lp2053
S'16407491'
p2054
aS'Amsterdam'
p2055
aS'737900'
p2056
aS'Europe'
p2057
aS'1579'
p2058
aS'Euro'
p2059
aS'Catholicism'
p2060
aS'Dutch'
p2061
aS'Frisian'
p2062
asS'Suriname'
p2063
(lp2064
S'438144'
p2065
aS'Pramaribo'
p2066
aS'217300'
p2067
aS'South America'
p2068
aS'1975'
p2069
aS'Suinamese Dollar'
p2070
aS'Hindu;Muslim;Catholicism;Protestant'
p2071
aS'Dutch'
p2072
aS'6 other'
p2073
asS'Anguilla'
p2074
(lp2075
S'12500'
p2076
aS'Anguilla'
p2077
ag16
aS'Caribbean'
p2078
ag51
aS'East Caribbean Dollar'
p2079
aS'Christianity'
p2080
aS'English'
p2081
asS'Venezuela'
p2082
(lp2083
S'25375281'
p2084
aS'Caracas'
p2085
aS'3517300'
p2086
aS'Latin America'
p2087
aS'1811'
p2088
aS'Bolivar'
p2089
aS'Catholicism'
p2090
aS'Spanish'
p2091
asS'Holy See'
p2092
(lp2093
S'921'
p2094
aS'Vatican City'
p2095
aS'921'
p2096
aS'Europe'
p2097
aS'1929'
p2098
aS'Euro'
p2099
aS'Christianity'
p2100
aS'Italian'
p2101
aS'Latin'
p2102
asS'Korea North'
p2103
(lp2104
S'22697553'
p2105
aS'Pyongyang'
p2106
aS'3222000'
p2107
aS'Orient'
p2108
aS'1945'
p2109
aS'NK Won'
p2110
aS'Buddhism'
p2111
aS'Korean'
p2112
asS'Israel'
p2113
(lp2114
S'6276883'
p2115
aS'Jerusalem'
p2116
aS'695500'
p2117
aS'Middle East'
p2118
aS'1948'
p2119
aS'New Israeli Shekel'
p2120
aS'Jewish;Muslim'
p2121
aS'Hebrew'
p2122
aS'Arabic'
p2123
asS'Indonesia'
p2124
(lp2125
S'241973879'
p2126
aS'Jakarta'
p2127
aS'17891000'
p2128
aS'Oceania'
p2129
aS'1945'
p2130
aS'Rupiah'
p2131
aS'Muslim'
p2132
aS'Malay'
p2133
aS'English'
p2134
aS'Dutch'
p2135
asS'Iceland'
p2136
(lp2137
S'296737'
p2138
aS'Reykjavik'
p2139
aS'184200'
p2140
aS'Arctic Region'
p2141
aS'1918'
p2142
aS'Icelandic Krona'
p2143
aS'Lutheran'
p2144
aS'Icelandic'
p2145
aS'English'
p2146
aS'Nordic'
p2147
asS'Zambia'
p2148
(lp2149
S'11261795'
p2150
aS'Lusaka'
p2151
aS'1773300'
p2152
aS'Africa'
p2153
aS'1964'
p2154
aS'Zambian Kwacha'
p2155
aS'Christianity;Muslim;Hindu'
p2156
aS'English'
p2157
aS'70+ Other'
p2158
asS'Senegal'
p2159
(lp2160
S'11126832'
p2161
aS'Dakar'
p2162
aS'2476400'
p2163
aS'Africa'
p2164
aS'1960'
p2165
aS'CFA Franc'
p2166
aS'Muslim'
p2167
aS'French'
p2168
aS'4 other'
p2169
asS'Papua New Guinea'
p2170
(lp2171
S'5545268'
p2172
aS'Port Moresby'
p2173
aS'324900'
p2174
aS'Oceania'
p2175
aS'1975'
p2176
aS'Kina'
p2177
aS'Catholicism;Lutheran'
p2178
aS'Melanesian'
p2179
aS'Motu'
p2180
asS'Trinidad and Tobago'
p2181
(lp2182
S'1088644'
p2183
aS'Port-of-Spain'
p2184
aS'263800'
p2185
aS'Caribbean'
p2186
aS'1962'
p2187
aS'T&T Dollar'
p2188
aS'Catholicism;Hindu;Anglican'
p2189
aS'English'
p2190
aS'Hindi'
p2191
asS'Zimbabwe'
p2192
(lp2193
S'12746990'
p2194
aS'Harare'
p2195
aS'2331400'
p2196
aS'Africa'
p2197
aS'1980'
p2198
aS'Zimbabwean Dollar'
p2199
aS'Christianity;Indigenous Beliefs'
p2200
aS'English'
p2201
aS'Shone'
p2202
aS'Sindebele'
p2203
asS'Germany'
p2204
(lp2205
S'82424609'
p2206
aS'Berlin'
p2207
aS'4376800'
p2208
aS'Europe'
p2209
aS'1871'
p2210
aS'Euro'
p2211
aS'Catholicism'
p2212
aS'German'
p2213
asS'Vanuatu'
p2214
(lp2215
S'205754'
p2216
aS'Port-Villa'
p2217
aS'35300'
p2218
aS'Oceania'
p2219
aS'1980'
p2220
aS'Vatu'
p2221
aS'Presbyterian;Anglican;Catholicism'
p2222
aS'English'
p2223
aS'French'
p2224
aS'100+ Other'
p2225
asS'Denmark'
p2226
(lp2227
S'5432335'
p2228
aS'Copenhagen'
p2229
aS'1343916'
p2230
aS'Europe'
p2231
aS'800'
p2232
aS'Danish Krone'
p2233
aS'Lutherian'
p2234
aS'Danish'
p2235
aS'Faroese'
p2236
asS'Kazakhstan'
p2237
(lp2238
S'15185844'
p2239
aS'Astana'
p2240
aS'288200'
p2241
aS'Asia'
p2242
aS'1991'
p2243
aS'Tenge'
p2244
aS'Muslim;Orthodox'
p2245
aS'Kazakh'
p2246
aS'Russian'
p2247
asS'Poland'
p2248
(lp2249
S'38635114'
p2250
aS'Warsaw'
p2251
aS'2201900'
p2252
aS'Europe'
p2253
aS'1918'
p2254
aS'Zloty'
p2255
aS'Catholicism'
p2256
aS'Polish'
p2257
asS'Eritrea'
p2258
(lp2259
S'4561599'
p2260
aS'Asmara'
p2261
ag16
aS'Africa'
p2262
aS'1993'
p2263
aS'Nakfa'
p2264
aS'Muslim;Catholisism'
p2265
aS'Tigrina'
p2266
aS'Arabic'
p2267
aS'English'
p2268
asS'Kyrgyzstan'
p2269
(lp2270
S'5146281'
p2271
aS'Bishkek'
p2272
aS'824900'
p2273
aS'Asia'
p2274
aS'1991'
p2275
aS'Kyrgyzstani Som'
p2276
aS'Muslim;Orthodox'
p2277
aS'Kyrgyz'
p2278
aS'Russian'
p2279
asS'Northern Ireland'
p2280
(lp2281
S'1688600'
p2282
aS'Belfast'
p2283
aS'484800'
p2284
aS'Europe'
p2285
ag51
aS'British Pound'
p2286
aS'Catholicism;Protestant'
p2287
aS'English'
p2288
asS'Mayotte'
p2289
(lp2290
S'186026'
p2291
aS'Mamoutzou'
p2292
ag16
aS'Africa'
p2293
ag51
aS'Euro'
p2294
aS'Muslim'
p2295
aS'Swahili'
p2296
aS'French'
p2297
asS'Montserrat'
p2298
(lp2299
S'9245'
p2300
aS'Plymouth'
p2301
ag1108
aS'Caribbean'
p2302
ag51
aS'EC Dollar'
p2303
aS'Anglican;Christianity'
p2304
aS'English'
p2305
asS'Netherlands Antillies'
p2306
(lp2307
S'218126'
p2308
aS'Willemstad'
p2309
ag16
aS'Caribbean'
p2310
ag51
aS'Antellian Guilder'
p2311
aS'Catholicism'
p2312
aS'Duch'
p2313
aS'Papiamento'
p2314
asS'New Caledonia'
p2315
(lp2316
S'213679'
p2317
aS'Noumea'
p2318
ag16
aS'Oceania'
p2319
ag51
aS'Euro'
p2320
aS'Catholicism'
p2321
aS'French'
p2322
asS'Macedonia'
p2323
(lp2324
S'2045262'
p2325
aS'Skopje'
p2326
aS'587300'
p2327
aS'Europe'
p2328
aS'1991'
p2329
aS'Macedonian Denar'
p2330
aS'Orthodox;Islam'
p2331
aS'Macedonian'
p2332
aS'Albanian'
p2333
asS'Sri Lanka'
p2334
(lp2335
S'20064776'
p2336
aS'Colombo'
p2337
aS'2436000'
p2338
aS'Asia'
p2339
aS'1948'
p2340
aS'Sri Lanka Rupee'
p2341
aS'Buddhism;Hindu;Christianity;Muslim'
p2342
aS'Sinhala'
p2343
aS'Tamil'
p2344
asS'Latvia'
p2345
(lp2346
S'2290237'
p2347
aS'Riga'
p2348
aS'867700'
p2349
aS'Europe'
p2350
aS'1991'
p2351
aS'Lat'
p2352
aS'Lutheran;Catholicism'
p2353
aS'Latvian'
p2354
aS'Russian'
p2355
asS'Guyana'
p2356
(lp2357
S'705803'
p2358
aS'Georgetown'
p2359
aS'227700'
p2360
aS'South America'
p2361
aS'1966'
p2362
aS'Guyanese Dollar'
p2363
aS'Christianity;Hindu;Muslim'
p2364
aS'English'
p2365
aS'Creole'
p2366
aS'Hindu'
p2367
aS'Urdu'
p2368
asS'Syria'
p2369
(lp2370
S'18448752'
p2371
aS'Damascus'
p2372
aS'2381800'
p2373
aS'Middle East'
p2374
aS'1946'
p2375
aS'Syrian Pound'
p2376
aS'Muslim'
p2377
aS'Arabic'
p2378
aS'Kurdish'
p2379
aS'Armenian'
p2380
aS'Other'
p2381
asS'Guadeloupe'
p2382
(lp2383
S'444515'
p2384
aS'Basse-Terre'
p2385
aS'175000'
p2386
aS'Caribbean'
p2387
ag51
aS'Euro;French Franc'
p2388
aS'Catholicism'
p2389
aS'French'
p2390
aS'Creole'
p2391
asS'Honduras'
p2392
(lp2393
S'6975204'
p2394
aS'Tegucigalpa'
p2395
aS'1436000'
p2396
aS'Latin America'
p2397
aS'1821'
p2398
aS'Lempira'
p2399
aS'Catholicism'
p2400
aS'Spanish'
p2401
aS'Amerindian Dialects'
p2402
asS'Myanmar'
p2403
(lp2404
S'42909464'
p2405
aS'Yangon'
p2406
aS'4344100'
p2407
aS'Asia'
p2408
aS'1948'
p2409
aS'Kyat'
p2410
aS'Buddhism'
p2411
aS'Burmese'
p2412
asS'Equatorial Guinea'
p2413
(lp2414
S'523051'
p2415
aS'Malabo'
p2416
ag16
aS'Africa'
p2417
aS'1967'
p2418
aS'CFA Franc'
p2419
aS'Catholisism'
p2420
aS'Spanish'
p2421
aS'French'
p2422
asS'Egypt'
p2423
(lp2424
S'76117421'
p2425
aS'Cairo'
p2426
aS'15452000'
p2427
aS'Africa'
p2428
aS'1922'
p2429
aS'Egyptian Pound'
p2430
aS'Sunni Muslim'
p2431
aS'Arabic'
p2432
asS'Nicaragua'
p2433
(lp2434
S'5465100'
p2435
aS'Managua'
p2436
aS'1390500'
p2437
aS'Latin America'
p2438
aS'1821'
p2439
aS'Gold Cordoba'
p2440
aS'Catholicism'
p2441
aS'Spanish'
p2442
asS'Singapore'
p2443
(lp2444
S'4425720'
p2445
aS'Singapore'
p2446
aS'3438600'
p2447
aS'Orient'
p2448
aS'1965'
p2449
aS'Singapore Dollar'
p2450
aS'Buddhism;Muslim;Other'
p2451
aS'Chinese'
p2452
aS'Malay'
p2453
aS'Tamil'
p2454
aS'English'
p2455
asS'Botswana'
p2456
(lp2457
S'1563267'
p2458
aS'Gaborone'
p2459
aS'195000'
p2460
aS'Africa'
p2461
aS'1966'
p2462
aS'Pula'
p2463
aS'Christianity'
p2464
aS'English'
p2465
aS'Setswana'
p2466
asS'Antarctica'
p2467
(lp2468
g1108
ag51
ag51
aS'Antarctica'
p2469
aS'1961'
p2470
ag51
ag51
ag51
asS'Greece'
p2471
(lp2472
S'10672000'
p2473
aS'Athens'
p2474
aS'3247000'
p2475
aS'Europe'
p2476
aS'1830'
p2477
aS'Euro'
p2478
aS'Greek Orthodox'
p2479
aS'Greek'
p2480
asS'Paraguay'
p2481
(lp2482
S'6347884'
p2483
aS'Asuncion'
p2484
aS'1482200'
p2485
aS'Latin America'
p2486
aS'1811'
p2487
aS'Guarani'
p2488
aS'Catholicism'
p2489
aS'Spanish'
p2490
aS'Guarani'
p2491
asS'French Guiana'
p2492
(lp2493
S'191309'
p2494
aS'Cayenne'
p2495
aS'66149'
p2496
aS'Latin America'
p2497
ag51
aS'Euro'
p2498
aS'Catholicism'
p2499
aS'French'
p2500
asS'Comoros'
p2501
(lp2502
S'596292'
p2503
aS'Moroni'
p2504
aS'60200'
p2505
aS'Africa'
p2506
aS'1975'
p2507
aS'Comorian Franc'
p2508
aS'Islam'
p2509
aS'Arabic'
p2510
aS'French'
p2511
as.